; Function Attrs: nounwind uwtable
define internal fastcc i32 @overlay_apply_node(ptr noundef %0, i32 noundef range(i32 0, -2147483648) %1, ptr noundef %2, i32 noundef range(i32 0, -2147483648) %3) unnamed_addr #0 {
  %5 = alloca ptr, align 8
  %6 = alloca i32, align 4
  %7 = tail call i32 @fdt_first_property_offset(ptr noundef %2, i32 noundef %3) #8
  %8 = icmp sgt i32 %7, -1
  br i1 %8, label %.lr.ph, label %._crit_edge

.lr.ph:                                           ; preds = %4, %17
  %.04257 = phi i32 [ %18, %17 ], [ %7, %4 ]
  call void @llvm.lifetime.start.p0(i64 8, ptr nonnull %5) #8
  store ptr null, ptr %5, align 8, !annotation !4
  call void @llvm.lifetime.start.p0(i64 4, ptr nonnull %6) #8
  store i32 0, ptr %6, align 4, !annotation !4
  %9 = call ptr @fdt_getprop_by_offset(ptr noundef %2, i32 noundef %.04257, ptr noundef nonnull %5, ptr noundef nonnull %6) #8
  %10 = load i32, ptr %6, align 4
  %11 = icmp eq i32 %10, -1
  br i1 %11, label %.thread, label %12

12:                                               ; preds = %.lr.ph
  %13 = icmp slt i32 %10, 0
  br i1 %13, label %.thread, label %14

.thread:                                          ; preds = %.lr.ph, %12
  %.1.ph = phi i32 [ %10, %12 ], [ -13, %.lr.ph ]
  call void @llvm.lifetime.end.p0(i64 4, ptr nonnull %6) #8
  call void @llvm.lifetime.end.p0(i64 8, ptr nonnull %5) #8
  br label %.thread53

14:                                               ; preds = %12
  %15 = load ptr, ptr %5, align 8
  %16 = call i32 @fdt_setprop(ptr noundef %0, i32 noundef %1, ptr noundef %15, ptr noundef %9, i32 noundef %10) #8
  %.not48 = icmp eq i32 %16, 0
  call void @llvm.lifetime.end.p0(i64 4, ptr nonnull %6) #8
  call void @llvm.lifetime.end.p0(i64 8, ptr nonnull %5) #8
  br i1 %.not48, label %17, label %.thread53

17:                                               ; preds = %14
  %18 = call i32 @fdt_next_property_offset(ptr noundef %2, i32 noundef %.04257) #8
  %19 = icmp sgt i32 %18, -1
  br i1 %19, label %.lr.ph, label %._crit_edge, !llvm.loop !14

._crit_edge:                                      ; preds = %17, %4
  %20 = call i32 @fdt_first_subnode(ptr noundef %2, i32 noundef %3) #8
  %21 = icmp sgt i32 %20, -1
  br i1 %21, label %.lr.ph60, label %.thread53

.lr.ph60:                                         ; preds = %._crit_edge, %32
  %.04158 = phi i32 [ %33, %32 ], [ %20, %._crit_edge ]
  %22 = call ptr @fdt_get_name(ptr noundef %2, i32 noundef %.04158, ptr noundef null) #8
  %23 = call i32 @fdt_add_subnode(ptr noundef %0, i32 noundef %1, ptr noundef %22) #8
  %24 = icmp eq i32 %23, -2
  br i1 %24, label %25, label %28

25:                                               ; preds = %.lr.ph60
  %26 = call i32 @fdt_subnode_offset(ptr noundef %0, i32 noundef %1, ptr noundef %22) #8
  %27 = icmp eq i32 %26, -1
  br i1 %27, label %.thread53, label %28

28:                                               ; preds = %25, %.lr.ph60
  %.0 = phi i32 [ %26, %25 ], [ %23, %.lr.ph60 ]
  %29 = icmp slt i32 %.0, 0
  br i1 %29, label %.thread53, label %30

30:                                               ; preds = %28
  %31 = call fastcc i32 @overlay_apply_node(ptr noundef %0, i32 noundef %.0, ptr noundef %2, i32 noundef %.04158)
  %.not = icmp eq i32 %31, 0
  br i1 %.not, label %32, label %.thread53

32:                                               ; preds = %30
  %33 = call i32 @fdt_next_subnode(ptr noundef %2, i32 noundef %.04158) #8
  %34 = icmp sgt i32 %33, -1
  br i1 %34, label %.lr.ph60, label %.thread53, !llvm.loop !15

.thread53:                                        ; preds = %14, %30, %32, %25, %28, %._crit_edge, %.thread
  %.2 = phi i32 [ %.1.ph, %.thread ], [ 0, %._crit_edge ], [ %31, %30 ], [ 0, %32 ], [ -13, %25 ], [ %.0, %28 ], [ %16, %14 ]
  ret i32 %.2
}